target datalayout = "e-m:e-p270:32:32-p271:32:32-p272:64:64-i64:64-i128:128-f80:128-n8:16:32:64-S128"
target triple = "x86_64-pc-linux-gnu"

%struct.AVCodecContext = type { ptr, i32, i32, ptr, i32, i32, ptr, ptr, ptr, i64, i32, i32, ptr, i32, %struct.AVRational, %struct.AVRational, %struct.AVRational, i32, i32, i32, i32, i32, %struct.AVRational, i32, i32, i32, i32, i32, i32, i32, i32, i32, i32, i32, ptr, ptr, i32, float, float, float, float, float, float, float, float, float, i32, i32, i32, i32, i32, i32, i32, i32, i32, i32, i32, i32, ptr, ptr, ptr, i32, i32, i32, i32, i32, i32, i32, i32, i32, i32, %struct.AVChannelLayout, i32, i32, i32, i32, i32, i32, i32, i32, ptr, i32, i32, i32, float, float, i32, i32, i32, i32, i32, ptr, i64, i64, float, float, i32, i32, ptr, ptr, i32, i32, i32, i32, i32, ptr, ptr, ptr, ptr, i32, i32, [8 x i64], i32, i32, i32, i32, i32, i32, i32, ptr, ptr, i32, i32, i32, i32, i32, i32, i32, i32, i32, i32, ptr, ptr, i32, i32, ptr, ptr, ptr, ptr, i32, i32, i64, i32, i32, i64, ptr, i64, ptr, i32, ptr, i32 }
%struct.AVRational = type { i32, i32 }
%struct.AVChannelLayout = type { i32, i32, %union.anon.0, ptr }
%union.anon.0 = type { i64 }
%struct.Vp3DecodeContext = type { ptr, i32, i32, i32, i32, i32, i32, i32, i32, %struct.ProgressFrame, %struct.ProgressFrame, %struct.ProgressFrame, i32, [64 x i8], [64 x i8], %struct.HpelDSPContext, %struct.VideoDSPContext, %struct.VP3DSPContext, [64 x i16], i32, i32, i32, [3 x i32], i32, [3 x i32], i32, i32, i32, i32, i32, i32, i32, i32, i32, ptr, i32, i32, i32, i32, i32, i32, i32, i32, [2 x i32], [2 x i32], ptr, [3 x i32], [3 x i32], i8, i8, i32, [2 x ptr], [2 x [64 x i16]], [64 x i32], [384 x [64 x i8]], [2 x [3 x i8]], [2 x [3 x [64 x i8]]], [2 x [3 x [64 x i16]]], [3 x [64 x ptr]], ptr, [3 x [64 x i32]], i32, [3 x ptr], ptr, ptr, [3 x i32], ptr, [8 x i8], [3 x [2 x [3 x [64 x i16]]]], ptr, ptr, ptr, [80 x %struct.HuffTable], [64 x i8], [258 x i32], ptr, [8 x i8] }
%struct.ProgressFrame = type { ptr, ptr }
%struct.HpelDSPContext = type { [4 x [4 x ptr]], [4 x [4 x ptr]], [4 x [4 x ptr]], [4 x ptr] }
%struct.VideoDSPContext = type { ptr, ptr }
%struct.VP3DSPContext = type { ptr, ptr, ptr, ptr, ptr, ptr, ptr, ptr }
%struct.HuffTable = type { [32 x %struct.HuffEntry], i8 }
%struct.HuffEntry = type { i8, i8 }

; Function Attrs: nounwind uwtable
define internal void @update_frames(ptr noundef %0) #0 {
  %2 = alloca ptr, align 8
  %3 = alloca ptr, align 8
  %4 = alloca %struct.ProgressFrame, align 8
  store ptr %0, ptr %2, align 8, !tbaa !4
  call void @llvm.lifetime.start.p0(i64 8, ptr %3) #9
  %5 = load ptr, ptr %2, align 8, !tbaa !4
  %6 = getelementptr inbounds nuw %struct.AVCodecContext, ptr %5, i32 0, i32 6
  %7 = load ptr, ptr %6, align 8, !tbaa !9
  store ptr %7, ptr %3, align 8, !tbaa !29
  %8 = load ptr, ptr %3, align 8, !tbaa !29
  %9 = getelementptr inbounds nuw %struct.Vp3DecodeContext, ptr %8, i32 0, i32 12
  %10 = load i32, ptr %9, align 8, !tbaa !45
  %11 = icmp ne i32 %10, 0
  br i1 %11, label %12, label %17

12:                                               ; preds = %1
  %13 = load ptr, ptr %3, align 8, !tbaa !29
  %14 = getelementptr inbounds nuw %struct.Vp3DecodeContext, ptr %13, i32 0, i32 9
  %15 = load ptr, ptr %3, align 8, !tbaa !29
  %16 = getelementptr inbounds nuw %struct.Vp3DecodeContext, ptr %15, i32 0, i32 11
  call void @ff_progress_frame_replace(ptr noundef %14, ptr noundef %16)
  br label %17

17:                                               ; preds = %12, %1
  %18 = load ptr, ptr %3, align 8, !tbaa !29
  %19 = getelementptr inbounds nuw %struct.Vp3DecodeContext, ptr %18, i32 0, i32 10
  call void @ff_progress_frame_unref(ptr noundef %19)
  br label %20

20:                                               ; preds = %17
  call void @llvm.lifetime.start.p0(i64 16, ptr %4) #9
  %21 = load ptr, ptr %3, align 8, !tbaa !29
  %22 = getelementptr inbounds nuw %struct.Vp3DecodeContext, ptr %21, i32 0, i32 11
  call void @llvm.memcpy.p0.p0.i64(ptr align 8 %4, ptr align 8 %22, i64 16, i1 false), !tbaa.struct !147
  %23 = load ptr, ptr %3, align 8, !tbaa !29
  %24 = getelementptr inbounds nuw %struct.Vp3DecodeContext, ptr %23, i32 0, i32 11
  %25 = load ptr, ptr %3, align 8, !tbaa !29
  %26 = getelementptr inbounds nuw %struct.Vp3DecodeContext, ptr %25, i32 0, i32 10
  call void @llvm.memcpy.p0.p0.i64(ptr align 8 %24, ptr align 8 %26, i64 16, i1 false), !tbaa.struct !147
  %27 = load ptr, ptr %3, align 8, !tbaa !29
  %28 = getelementptr inbounds nuw %struct.Vp3DecodeContext, ptr %27, i32 0, i32 10
  call void @llvm.memcpy.p0.p0.i64(ptr align 8 %28, ptr align 8 %4, i64 16, i1 false), !tbaa.struct !147
  call void @llvm.lifetime.end.p0(i64 16, ptr %4) #9
  br label %29

29:                                               ; preds = %20
  br label %30

30:                                               ; preds = %29
  call void @llvm.lifetime.end.p0(i64 8, ptr %3) #9
  ret void
}

; Function Attrs: nounwind uwtable
define internal void @ref_frames(ptr noundef %0, ptr noundef %1) #0 {
  %3 = alloca ptr, align 8
  %4 = alloca ptr, align 8
  store ptr %0, ptr %3, align 8, !tbaa !29
  store ptr %1, ptr %4, align 8, !tbaa !29
  %5 = load ptr, ptr %3, align 8, !tbaa !29
  %6 = getelementptr inbounds nuw %struct.Vp3DecodeContext, ptr %5, i32 0, i32 11
  %7 = load ptr, ptr %4, align 8, !tbaa !29
  %8 = getelementptr inbounds nuw %struct.Vp3DecodeContext, ptr %7, i32 0, i32 11
  call void @ff_progress_frame_replace(ptr noundef %6, ptr noundef %8)
  %9 = load ptr, ptr %3, align 8, !tbaa !29
  %10 = getelementptr inbounds nuw %struct.Vp3DecodeContext, ptr %9, i32 0, i32 9
  %11 = load ptr, ptr %4, align 8, !tbaa !29
  %12 = getelementptr inbounds nuw %struct.Vp3DecodeContext, ptr %11, i32 0, i32 9
  call void @ff_progress_frame_replace(ptr noundef %10, ptr noundef %12)
  %13 = load ptr, ptr %3, align 8, !tbaa !29
  %14 = getelementptr inbounds nuw %struct.Vp3DecodeContext, ptr %13, i32 0, i32 10
  %15 = load ptr, ptr %4, align 8, !tbaa !29
  %16 = getelementptr inbounds nuw %struct.Vp3DecodeContext, ptr %15, i32 0, i32 10
  call void @ff_progress_frame_replace(ptr noundef %14, ptr noundef %16)
  ret void
}

; Function Attrs: nounwind uwtable
define internal i32 @vp3_update_thread_context(ptr noundef %0, ptr noundef %1) #0 {
  %3 = alloca i32, align 4
  %4 = alloca ptr, align 8
  %5 = alloca ptr, align 8
  %6 = alloca ptr, align 8
  %7 = alloca ptr, align 8
  %8 = alloca i32, align 4
  %9 = alloca i32, align 4
  %10 = alloca i32, align 4
  store ptr %0, ptr %4, align 8, !tbaa !4
  store ptr %1, ptr %5, align 8, !tbaa !4
  call void @llvm.lifetime.start.p0(i64 8, ptr %6) #9
  %11 = load ptr, ptr %4, align 8, !tbaa !4
  %12 = getelementptr inbounds nuw %struct.AVCodecContext, ptr %11, i32 0, i32 6
  %13 = load ptr, ptr %12, align 8, !tbaa !9
  store ptr %13, ptr %6, align 8, !tbaa !29
  call void @llvm.lifetime.start.p0(i64 8, ptr %7) #9
  %14 = load ptr, ptr %5, align 8, !tbaa !4
  %15 = getelementptr inbounds nuw %struct.AVCodecContext, ptr %14, i32 0, i32 6
  %16 = load ptr, ptr %15, align 8, !tbaa !9
  store ptr %16, ptr %7, align 8, !tbaa !29
  call void @llvm.lifetime.start.p0(i64 4, ptr %8) #9
  store i32 0, ptr %8, align 4, !tbaa !31
  %17 = load ptr, ptr %6, align 8, !tbaa !29
  %18 = getelementptr inbounds nuw %struct.Vp3DecodeContext, ptr %17, i32 0, i32 66
  %19 = load ptr, ptr %7, align 8, !tbaa !29
  %20 = getelementptr inbounds nuw %struct.Vp3DecodeContext, ptr %19, i32 0, i32 66
  %21 = load ptr, ptr %20, align 16, !tbaa !32
  call void @av_refstruct_replace(ptr noundef %18, ptr noundef %21)
  %22 = load ptr, ptr %6, align 8, !tbaa !29
  %23 = load ptr, ptr %7, align 8, !tbaa !29
  call void @ref_frames(ptr noundef %22, ptr noundef %23)
  %24 = load ptr, ptr %7, align 8, !tbaa !29
  %25 = getelementptr inbounds nuw %struct.Vp3DecodeContext, ptr %24, i32 0, i32 11
  %26 = getelementptr inbounds nuw %struct.ProgressFrame, ptr %25, i32 0, i32 0
  %27 = load ptr, ptr %26, align 8, !tbaa !42
  %28 = icmp ne ptr %27, null
  br i1 %28, label %29, label %45

29:                                               ; preds = %2
  %30 = load ptr, ptr %6, align 8, !tbaa !29
  %31 = getelementptr inbounds nuw %struct.Vp3DecodeContext, ptr %30, i32 0, i32 5
  %32 = load i32, ptr %31, align 8, !tbaa !43
  %33 = load ptr, ptr %7, align 8, !tbaa !29
  %34 = getelementptr inbounds nuw %struct.Vp3DecodeContext, ptr %33, i32 0, i32 5
  %35 = load i32, ptr %34, align 8, !tbaa !43
  %36 = icmp ne i32 %32, %35
  br i1 %36, label %45, label %37

37:                                               ; preds = %29
  %38 = load ptr, ptr %6, align 8, !tbaa !29
  %39 = getelementptr inbounds nuw %struct.Vp3DecodeContext, ptr %38, i32 0, i32 6
  %40 = load i32, ptr %39, align 4, !tbaa !44
  %41 = load ptr, ptr %7, align 8, !tbaa !29
  %42 = getelementptr inbounds nuw %struct.Vp3DecodeContext, ptr %41, i32 0, i32 6
  %43 = load i32, ptr %42, align 4, !tbaa !44
  %44 = icmp ne i32 %40, %43
  br i1 %44, label %45, label %46

45:                                               ; preds = %37, %29, %2
  store i32 -1, ptr %3, align 4
  store i32 1, ptr %9, align 4
  br label %126

46:                                               ; preds = %37
  %47 = load ptr, ptr %6, align 8, !tbaa !29
  %48 = load ptr, ptr %7, align 8, !tbaa !29
  %49 = icmp ne ptr %47, %48
  br i1 %49, label %50, label %124

50:                                               ; preds = %46
  %51 = load ptr, ptr %7, align 8, !tbaa !29
  %52 = getelementptr inbounds nuw %struct.Vp3DecodeContext, ptr %51, i32 0, i32 12
  %53 = load i32, ptr %52, align 8, !tbaa !45
  %54 = load ptr, ptr %6, align 8, !tbaa !29
  %55 = getelementptr inbounds nuw %struct.Vp3DecodeContext, ptr %54, i32 0, i32 12
  store i32 %53, ptr %55, align 8, !tbaa !45
  call void @llvm.lifetime.start.p0(i64 4, ptr %10) #9
  store i32 0, ptr %10, align 4, !tbaa !31
  br label %56

56:                                               ; preds = %84, %50
  %57 = load i32, ptr %10, align 4, !tbaa !31
  %58 = icmp slt i32 %57, 3
  br i1 %58, label %60, label %59

59:                                               ; preds = %56
  store i32 2, ptr %9, align 4
  call void @llvm.lifetime.end.p0(i64 4, ptr %10) #9
  br label %87

60:                                               ; preds = %56
  %61 = load ptr, ptr %6, align 8, !tbaa !29
  %62 = getelementptr inbounds nuw %struct.Vp3DecodeContext, ptr %61, i32 0, i32 22
  %63 = load i32, ptr %10, align 4, !tbaa !31
  %64 = sext i32 %63 to i64
  %65 = getelementptr inbounds [3 x i32], ptr %62, i64 0, i64 %64
  %66 = load i32, ptr %65, align 4, !tbaa !31
  %67 = load ptr, ptr %7, align 8, !tbaa !29
  %68 = getelementptr inbounds nuw %struct.Vp3DecodeContext, ptr %67, i32 0, i32 22
  %69 = getelementptr inbounds [3 x i32], ptr %68, i64 0, i64 1
  %70 = load i32, ptr %69, align 4, !tbaa !31
  %71 = icmp ne i32 %66, %70
  br i1 %71, label %72, label %83

72:                                               ; preds = %60
  store i32 1, ptr %8, align 4, !tbaa !31
  %73 = load ptr, ptr %6, align 8, !tbaa !29
  %74 = getelementptr inbounds nuw %struct.Vp3DecodeContext, ptr %73, i32 0, i32 68
  %75 = load i32, ptr %10, align 4, !tbaa !31
  %76 = sext i32 %75 to i64
  %77 = getelementptr inbounds [3 x [2 x [3 x [64 x i16]]]], ptr %74, i64 0, i64 %76
  %78 = load ptr, ptr %7, align 8, !tbaa !29
  %79 = getelementptr inbounds nuw %struct.Vp3DecodeContext, ptr %78, i32 0, i32 68
  %80 = load i32, ptr %10, align 4, !tbaa !31
  %81 = sext i32 %80 to i64
  %82 = getelementptr inbounds [3 x [2 x [3 x [64 x i16]]]], ptr %79, i64 0, i64 %81
  call void @llvm.memcpy.p0.p0.i64(ptr align 16 %77, ptr align 16 %82, i64 768, i1 false)
  br label %83

83:                                               ; preds = %72, %60
  br label %84

84:                                               ; preds = %83
  %85 = load i32, ptr %10, align 4, !tbaa !31
  %86 = add nsw i32 %85, 1
  store i32 %86, ptr %10, align 4, !tbaa !31
  br label %56, !llvm.loop !46

87:                                               ; preds = %59
  %88 = load ptr, ptr %6, align 8, !tbaa !29
  %89 = getelementptr inbounds nuw %struct.Vp3DecodeContext, ptr %88, i32 0, i32 22
  %90 = getelementptr inbounds [3 x i32], ptr %89, i64 0, i64 0
  %91 = load i32, ptr %90, align 4, !tbaa !31
  %92 = load ptr, ptr %7, align 8, !tbaa !29
  %93 = getelementptr inbounds nuw %struct.Vp3DecodeContext, ptr %92, i32 0, i32 22
  %94 = getelementptr inbounds [3 x i32], ptr %93, i64 0, i64 0
  %95 = load i32, ptr %94, align 4, !tbaa !31
  %96 = icmp ne i32 %91, %95
  br i1 %96, label %97, label %102

97:                                               ; preds = %87
  %98 = load ptr, ptr %6, align 8, !tbaa !29
  %99 = getelementptr inbounds nuw %struct.Vp3DecodeContext, ptr %98, i32 0, i32 74
  %100 = load ptr, ptr %7, align 8, !tbaa !29
  %101 = getelementptr inbounds nuw %struct.Vp3DecodeContext, ptr %100, i32 0, i32 74
  call void @llvm.memcpy.p0.p0.i64(ptr align 8 %99, ptr align 8 %101, i64 1032, i1 false)
  br label %102

102:                                              ; preds = %97, %87
  %103 = load i32, ptr %8, align 4, !tbaa !31
  %104 = icmp ne i32 %103, 0
  br i1 %104, label %105, label %123

105:                                              ; preds = %102
  %106 = load ptr, ptr %6, align 8, !tbaa !29
  %107 = getelementptr inbounds nuw %struct.Vp3DecodeContext, ptr %106, i32 0, i32 22
  %108 = getelementptr inbounds [3 x i32], ptr %107, i64 0, i64 0
  %109 = load ptr, ptr %7, align 8, !tbaa !29
  %110 = getelementptr inbounds nuw %struct.Vp3DecodeContext, ptr %109, i32 0, i32 22
  %111 = getelementptr inbounds [3 x i32], ptr %110, i64 0, i64 0
  call void @llvm.memcpy.p0.p0.i64(ptr align 4 %108, ptr align 4 %111, i64 12, i1 false)
  %112 = load ptr, ptr %6, align 8, !tbaa !29
  %113 = getelementptr inbounds nuw %struct.Vp3DecodeContext, ptr %112, i32 0, i32 24
  %114 = getelementptr inbounds [3 x i32], ptr %113, i64 0, i64 0
  %115 = load ptr, ptr %7, align 8, !tbaa !29
  %116 = getelementptr inbounds nuw %struct.Vp3DecodeContext, ptr %115, i32 0, i32 24
  %117 = getelementptr inbounds [3 x i32], ptr %116, i64 0, i64 0
  call void @llvm.memcpy.p0.p0.i64(ptr align 4 %114, ptr align 4 %117, i64 12, i1 false)
  %118 = load ptr, ptr %7, align 8, !tbaa !29
  %119 = getelementptr inbounds nuw %struct.Vp3DecodeContext, ptr %118, i32 0, i32 23
  %120 = load i32, ptr %119, align 8, !tbaa !48
  %121 = load ptr, ptr %6, align 8, !tbaa !29
  %122 = getelementptr inbounds nuw %struct.Vp3DecodeContext, ptr %121, i32 0, i32 23
  store i32 %120, ptr %122, align 8, !tbaa !48
  br label %123

123:                                              ; preds = %105, %102
  br label %124

124:                                              ; preds = %123, %46
  %125 = load ptr, ptr %4, align 8, !tbaa !4
  call void @update_frames(ptr noundef %125)
  store i32 0, ptr %3, align 4
  store i32 1, ptr %9, align 4
  br label %126

126:                                              ; preds = %124, %45
  call void @llvm.lifetime.end.p0(i64 4, ptr %8) #9
  call void @llvm.lifetime.end.p0(i64 8, ptr %7) #9
  call void @llvm.lifetime.end.p0(i64 8, ptr %6) #9
  %127 = load i32, ptr %3, align 4
  ret i32 %127
}