; Function Attrs: nounwind uwtable
define internal range(i32 -1, 1) i32 @vp3_update_thread_context(ptr noundef readonly captures(none) %0, ptr noundef readonly captures(none) %1) #0 {
  %3 = alloca %struct.ProgressFrame, align 8
  %4 = getelementptr inbounds nuw i8, ptr %0, i64 32
  %5 = load ptr, ptr %4, align 8, !tbaa !4
  %6 = getelementptr inbounds nuw i8, ptr %1, i64 32
  %7 = load ptr, ptr %6, align 8, !tbaa !4
  %8 = getelementptr inbounds nuw i8, ptr %5, i64 29664
  %9 = getelementptr inbounds nuw i8, ptr %7, i64 29664
  %10 = load ptr, ptr %9, align 16, !tbaa !27
  tail call void @av_refstruct_replace(ptr noundef nonnull %8, ptr noundef %10) #9
  %11 = getelementptr inbounds nuw i8, ptr %5, i64 72
  %12 = getelementptr inbounds nuw i8, ptr %7, i64 72
  tail call void @ff_progress_frame_replace(ptr noundef nonnull %11, ptr noundef nonnull %12) #9
  %13 = getelementptr inbounds nuw i8, ptr %5, i64 40
  %14 = getelementptr inbounds nuw i8, ptr %7, i64 40
  tail call void @ff_progress_frame_replace(ptr noundef nonnull %13, ptr noundef nonnull %14) #9
  %15 = getelementptr inbounds nuw i8, ptr %5, i64 56
  %16 = getelementptr inbounds nuw i8, ptr %7, i64 56
  tail call void @ff_progress_frame_replace(ptr noundef nonnull %15, ptr noundef nonnull %16) #9
  %17 = load ptr, ptr %12, align 8, !tbaa !38
  %.not = icmp eq ptr %17, null
  br i1 %.not, label %67, label %18

18:                                               ; preds = %2
  %19 = getelementptr inbounds nuw i8, ptr %5, i64 24
  %20 = load i32, ptr %19, align 8, !tbaa !39
  %21 = getelementptr inbounds nuw i8, ptr %7, i64 24
  %22 = load i32, ptr %21, align 8, !tbaa !39
  %.not40 = icmp eq i32 %20, %22
  br i1 %.not40, label %23, label %67

23:                                               ; preds = %18
  %24 = getelementptr inbounds nuw i8, ptr %5, i64 28
  %25 = load i32, ptr %24, align 4, !tbaa !40
  %26 = getelementptr inbounds nuw i8, ptr %7, i64 28
  %27 = load i32, ptr %26, align 4, !tbaa !40
  %.not41 = icmp eq i32 %25, %27
  br i1 %.not41, label %28, label %67

28:                                               ; preds = %23
  %.not42 = icmp eq ptr %5, %7
  br i1 %.not42, label %59, label %29

29:                                               ; preds = %28
  %30 = getelementptr inbounds nuw i8, ptr %7, i64 88
  %31 = load i32, ptr %30, align 8, !tbaa !41
  %32 = getelementptr inbounds nuw i8, ptr %5, i64 88
  store i32 %31, ptr %32, align 8, !tbaa !41
  %33 = getelementptr inbounds nuw i8, ptr %5, i64 860
  %34 = getelementptr inbounds nuw i8, ptr %7, i64 864
  %35 = getelementptr inbounds nuw i8, ptr %5, i64 29680
  %36 = getelementptr inbounds nuw i8, ptr %7, i64 29680
  br label %41

37:                                               ; preds = %48
  %38 = load i32, ptr %33, align 4, !tbaa !42
  %39 = getelementptr inbounds nuw i8, ptr %7, i64 860
  %40 = load i32, ptr %39, align 4, !tbaa !42
  %.not43 = icmp eq i32 %38, %40
  br i1 %.not43, label %52, label %49

41:                                               ; preds = %29, %48
  %indvars.iv = phi i64 [ 0, %29 ], [ %indvars.iv.next, %48 ]
  %.03646 = phi i32 [ 0, %29 ], [ %.1, %48 ]
  %42 = getelementptr inbounds nuw [3 x i32], ptr %33, i64 0, i64 %indvars.iv
  %43 = load i32, ptr %42, align 4, !tbaa !42
  %44 = load i32, ptr %34, align 4, !tbaa !42
  %.not45 = icmp eq i32 %43, %44
  br i1 %.not45, label %48, label %45

45:                                               ; preds = %41
  %46 = getelementptr inbounds nuw [3 x [2 x [3 x [64 x i16]]]], ptr %35, i64 0, i64 %indvars.iv
  %47 = getelementptr inbounds nuw [3 x [2 x [3 x [64 x i16]]]], ptr %36, i64 0, i64 %indvars.iv
  tail call void @llvm.memcpy.p0.p0.i64(ptr noundef nonnull align 16 dereferenceable(768) %46, ptr noundef nonnull align 16 dereferenceable(768) %47, i64 768, i1 false)
  br label %48

48:                                               ; preds = %41, %45
  %.1 = phi i32 [ 1, %45 ], [ %.03646, %41 ]
  %indvars.iv.next = add nuw nsw i64 %indvars.iv, 1
  %exitcond.not = icmp eq i64 %indvars.iv.next, 3
  br i1 %exitcond.not, label %37, label %41, !llvm.loop !43

49:                                               ; preds = %37
  %50 = getelementptr inbounds nuw i8, ptr %5, i64 37272
  %51 = getelementptr inbounds nuw i8, ptr %7, i64 37272
  tail call void @llvm.memcpy.p0.p0.i64(ptr noundef nonnull align 8 dereferenceable(1032) %50, ptr noundef nonnull align 8 dereferenceable(1032) %51, i64 1032, i1 false)
  br label %52

52:                                               ; preds = %49, %37
  %.not44 = icmp eq i32 %.1, 0
  br i1 %.not44, label %59, label %53

53:                                               ; preds = %52
  tail call void @llvm.memcpy.p0.p0.i64(ptr noundef nonnull align 4 dereferenceable(12) %33, ptr noundef nonnull align 4 dereferenceable(12) %39, i64 12, i1 false)
  %54 = getelementptr inbounds nuw i8, ptr %5, i64 876
  %55 = getelementptr inbounds nuw i8, ptr %7, i64 876
  tail call void @llvm.memcpy.p0.p0.i64(ptr noundef nonnull align 4 dereferenceable(12) %54, ptr noundef nonnull align 4 dereferenceable(12) %55, i64 12, i1 false)
  %56 = getelementptr inbounds nuw i8, ptr %7, i64 872
  %57 = load i32, ptr %56, align 8, !tbaa !45
  %58 = getelementptr inbounds nuw i8, ptr %5, i64 872
  store i32 %57, ptr %58, align 8, !tbaa !45
  br label %59

59:                                               ; preds = %52, %53, %28
  %.val = load ptr, ptr %4, align 8, !tbaa !4
  %60 = getelementptr inbounds nuw i8, ptr %.val, i64 88
  %61 = load i32, ptr %60, align 8, !tbaa !41
  %.not.i = icmp eq i32 %61, 0
  br i1 %.not.i, label %update_frames.exit, label %62

62:                                               ; preds = %59
  %63 = getelementptr inbounds nuw i8, ptr %.val, i64 40
  %64 = getelementptr inbounds nuw i8, ptr %.val, i64 72
  tail call void @ff_progress_frame_replace(ptr noundef nonnull %63, ptr noundef nonnull %64) #9
  br label %update_frames.exit

update_frames.exit:                               ; preds = %59, %62
  %65 = getelementptr inbounds nuw i8, ptr %.val, i64 56
  tail call void @ff_progress_frame_unref(ptr noundef nonnull %65) #9
  call void @llvm.lifetime.start.p0(i64 16, ptr nonnull %3)
  %66 = getelementptr inbounds nuw i8, ptr %.val, i64 72
  call void @llvm.memcpy.p0.p0.i64(ptr noundef nonnull align 8 dereferenceable(16) %3, ptr noundef nonnull align 8 dereferenceable(16) %66, i64 16, i1 false), !tbaa.struct !46
  tail call void @llvm.memcpy.p0.p0.i64(ptr noundef nonnull align 8 dereferenceable(16) %66, ptr noundef nonnull align 8 dereferenceable(16) %65, i64 16, i1 false), !tbaa.struct !46
  call void @llvm.memcpy.p0.p0.i64(ptr noundef nonnull align 8 dereferenceable(16) %65, ptr noundef nonnull align 8 dereferenceable(16) %3, i64 16, i1 false), !tbaa.struct !46
  call void @llvm.lifetime.end.p0(i64 16, ptr nonnull %3)
  br label %67

67:                                               ; preds = %2, %18, %23, %update_frames.exit
  %.037 = phi i32 [ 0, %update_frames.exit ], [ -1, %23 ], [ -1, %18 ], [ -1, %2 ]
  ret i32 %.037
}